Certificate Request:
    Data:
        Version: 1 (0x0)
        Subject: C = AU, ST = Some-State, O = Internet Widgits Pty Ltd
        Subject Public Key Info:
            Public Key Algorithm: rsaEncryption
                RSA Public-Key: (2048 bit)
                Modulus:
                    00:af:df:1e:8c:1f:f1:ec:5e:51:2f:6e:f6:0b:38:
                    db:d5:91:09:e3:e2:d5:a7:32:66:05:62:2a:87:aa:
                    30:bc:91:5c:3e:84:1b:c6:89:de:89:ca:42:80:dd:
                    cc:13:b8:60:f8:32:d3:ac:86:ab:23:0a:ba:36:2f:
                    7b:1a:30:6b:2d:39:ac:eb:ac:a9:86:64:e4:59:c5:
                    83:ba:52:4b:0a:1e:d1:5a:10:e5:2a:59:1e:ba:63:
                    01:1a:52:b2:5c:a0:3c:41:fe:75:b7:43:a6:91:e1:
                    af:29:33:c0:2b:f8:92:9b:61:2c:7e:5b:45:ba:5c:
                    87:01:c8:8a:b6:a1:dd:24:c2:e0:8b:8d:f6:29:05:
                    f7:80:b2:0d:69:1c:45:3c:2a:80:e9:79:9b:6d:20:
                    4f:0b:90:27:ce:a1:55:10:e9:d9:eb:40:cb:1f:a7:
                    09:31:53:f8:82:9f:61:95:41:9f:8d:fc:5d:f5:7b:
                    bf:ee:a8:7a:14:da:85:5d:94:20:33:31:51:09:3c:
                    7f:7f:73:42:85:82:3b:3f:bb:db:4a:b1:59:fe:2e:
                    22:58:bf:c4:1a:1f:a2:da:4b:f8:f9:c2:c5:06:9d:
                    a8:ca:5b:c1:d7:d6:57:58:74:af:4e:0b:3c:4b:90:
                    11:86:53:69:f5:63:bf:bd:4c:e8:21:db:24:f8:db:
                    5e:e3
                Exponent: 65537 (0x10001)
        Attributes:
            a0:00
    Signature Algorithm: sha256WithRSAEncryption
         44:d2:57:b1:37:8f:23:15:14:a1:80:70:16:39:88:80:32:3c:
         d3:1a:63:d1:b1:3c:df:d2:09:1f:92:96:fc:11:07:80:9e:89:
         2c:0f:49:53:07:62:df:50:b3:9b:69:c5:52:a6:d7:4f:7e:a9:
         91:99:e3:c6:2b:25:1d:31:1d:b4:bf:ef:b5:22:95:34:06:6f:
         8c:e1:b7:5c:dc:a1:c8:31:70:01:d0:38:16:3d:ac:72:b6:3c:
         e2:c5:7a:eb:df:12:af:49:fd:26:a0:4c:37:83:e3:ab:89:75:
         8c:8e:c8:2e:2c:33:47:2f:65:b3:49:e8:8f:47:b9:b7:6b:f7:
         5a:75:c9:6b:7d:b7:56:02:ee:29:98:4d:36:ed:5b:da:4e:e8:
         d1:c4:98:cd:17:e0:c5:2c:1f:10:86:2e:e9:f1:82:9a:9e:bf:
         4d:fe:d6:18:36:f9:b4:63:dc:be:ec:b1:84:da:11:a9:7d:7e:
         34:1b:7c:0c:de:04:08:41:a5:36:1c:cf:71:12:5e:8f:53:e9:
         97:8c:b9:aa:6b:48:b5:a1:be:fc:f5:73:58:c9:12:2d:dc:03:
         3e:0a:1f:da:b6:7e:18:5a:f9:e5:0a:43:8c:0c:bd:e1:b7:38:
         64:3d:6f:4c:9c:64:96:91:1e:e8:c8:81:3e:ce:58:c6:b1:05:
         84:19:73:49
-----BEGIN CERTIFICATE REQUEST-----
MIICijCCAXICAQAwRTELMAkGA1UEBhMCQVUxEzARBgNVBAgMClNvbWUtU3RhdGUx
ITAfBgNVBAoMGEludGVybmV0IFdpZGdpdHMgUHR5IEx0ZDCCASIwDQYJKoZIhvcN
AQEBBQADggEPADCCAQoCggEBAK/fHowf8exeUS9u9gs429WRCePi1acyZgViKoeq
MLyRXD6EG8aJ3onKQoDdzBO4YPgy06yGqyMKujYvexoway05rOusqYZk5FnFg7pS
Swoe0VoQ5SpZHrpjARpSslygPEH+dbdDppHhrykzwCv4kpthLH5bRbpchwHIirah
3STC4IuN9ikF94CyDWkcRTwqgOl5m20gTwuQJ86hVRDp2etAyx+nCTFT+IKfYZVB
n438XfV7v+6oehTahV2UIDMxUQk8f39zQoWCOz+720qxWf4uIli/xBofotpL+PnC
xQadqMpbwdfWV1h0r04LPEuQEYZTafVjv71M6CHbJPjbXuMCAwEAAaAAMA0GCSqG
SIb3DQEBCwUAA4IBAQBE0lexN48jFRShgHAWOYiAMjzTGmPRsTzf0gkfkpb8EQeA
noksD0lTB2LfULObacVSptdPfqmRmePGKyUdMR20v++1IpU0Bm+M4bdc3KHIMXAB
0DgWPaxytjzixXrr3xKvSf0moEw3g+OriXWMjsguLDNHL2WzSeiPR7m3a/dadclr
fbdWAu4pmE027VvaTujRxJjNF+DFLB8Qhi7p8YKanr9N/tYYNvm0Y9y+7LGE2hGp
fX40G3wM3gQIQaU2HM9xEl6PU+mXjLmqa0i1ob789XNYyRIt3AM+Ch/atn4YWvnl
CkOMDL3htzhkPW9MnGSWkR7oyIE+zljGsQWEGXNJ
-----END CERTIFICATE REQUEST-----
