Certificate:
    Data:
        Version: 3 (0x2)
        Serial Number: 2 (0x2)
        Signature Algorithm: sha256WithRSAEncryption
        Issuer: C=FR, ST=Some-State, O=Internet Widgits Pty Ltd
        Validity
            Not Before: Oct 11 13:57:54 2021 GMT
            Not After : Dec 10 13:57:54 2021 GMT
        Subject: C=AU, ST=Some-State, O=Internet Widgits Pty Ltd
        Subject Public Key Info:
            Public Key Algorithm: rsaEncryption
                RSA Public-Key: (2048 bit)
                Modulus:
                    00:af:df:1e:8c:1f:f1:ec:5e:51:2f:6e:f6:0b:38:
                    db:d5:91:09:e3:e2:d5:a7:32:66:05:62:2a:87:aa:
                    30:bc:91:5c:3e:84:1b:c6:89:de:89:ca:42:80:dd:
                    cc:13:b8:60:f8:32:d3:ac:86:ab:23:0a:ba:36:2f:
                    7b:1a:30:6b:2d:39:ac:eb:ac:a9:86:64:e4:59:c5:
                    83:ba:52:4b:0a:1e:d1:5a:10:e5:2a:59:1e:ba:63:
                    01:1a:52:b2:5c:a0:3c:41:fe:75:b7:43:a6:91:e1:
                    af:29:33:c0:2b:f8:92:9b:61:2c:7e:5b:45:ba:5c:
                    87:01:c8:8a:b6:a1:dd:24:c2:e0:8b:8d:f6:29:05:
                    f7:80:b2:0d:69:1c:45:3c:2a:80:e9:79:9b:6d:20:
                    4f:0b:90:27:ce:a1:55:10:e9:d9:eb:40:cb:1f:a7:
                    09:31:53:f8:82:9f:61:95:41:9f:8d:fc:5d:f5:7b:
                    bf:ee:a8:7a:14:da:85:5d:94:20:33:31:51:09:3c:
                    7f:7f:73:42:85:82:3b:3f:bb:db:4a:b1:59:fe:2e:
                    22:58:bf:c4:1a:1f:a2:da:4b:f8:f9:c2:c5:06:9d:
                    a8:ca:5b:c1:d7:d6:57:58:74:af:4e:0b:3c:4b:90:
                    11:86:53:69:f5:63:bf:bd:4c:e8:21:db:24:f8:db:
                    5e:e3
                Exponent: 65537 (0x10001)
        X509v3 extensions:
            X509v3 Basic Constraints: 
                CA:FALSE
            Netscape Comment: 
                OpenSSL Generated Certificate
            X509v3 Subject Key Identifier: 
                08:7A:15:FC:D2:B5:01:7E:FC:8D:C2:16:96:48:22:51:05:7B:4D:1C
            X509v3 Authority Key Identifier: 
                keyid:A6:33:A8:16:2D:6C:57:F7:28:E9:6C:E2:6D:7D:73:A2:33:95:2E:77

    Signature Algorithm: sha256WithRSAEncryption
         1b:3b:1d:f4:be:fa:12:b8:42:1b:78:00:5d:55:81:99:24:a1:
         48:24:46:8f:34:d0:aa:9b:b2:77:84:76:df:51:aa:f3:8f:d1:
         db:70:53:7e:7c:6e:c4:80:6d:4b:7f:b2:60:4d:08:0b:19:8c:
         ba:57:6c:6c:d7:13:78:ae:c8:fa:8b:da:05:8c:33:30:5a:db:
         ae:c8:34:46:65:78:43:28:ba:04:da:7d:8e:c4:3c:02:77:45:
         96:39:10:ec:32:45:de:a7:eb:1b:18:08:e7:cb:62:48:49:0e:
         e5:58:fe:ef:36:ad:4f:07:98:73:61:46:67:46:ca:74:05:f0:
         27:3d:e6:7b:56:41:12:22:92:a7:ad:33:ad:ee:4b:7f:bf:56:
         45:bf:e1:b9:a5:0c:02:15:a2:8b:33:2c:1e:7c:5c:b3:d0:a1:
         4e:55:f2:6a:be:1c:e7:c4:a7:79:65:65:1e:ca:3e:0e:37:c6:
         4a:4d:fc:8d:bf:22:43:4b:ec:ab:99:c5:31:e3:4c:0f:25:3e:
         7b:38:c7:ce:a9:87:dc:67:16:2e:24:82:b1:43:c2:6d:a3:90:
         4b:dc:3d:1b:e1:f5:61:13:b5:1c:4c:a6:10:7e:b2:bc:1a:8a:
         81:d3:7e:d1:1b:ac:f8:ce:e8:e0:b6:d4:d7:d2:ac:57:d1:c4:
         dc:06:24:7d:1c:35:82:77:cf:2b:bb:06:c6:a7:26:30:d4:60:
         33:cf:98:bd:b9:b6:22:83:de:19:42:34:3f:f5:22:e7:17:dc:
         04:2a:bc:10:18:3d:35:ff:a9:7d:7d:f2:28:f6:8f:b1:1e:8b:
         fd:b3:7a:8c:09:02:89:d8:c3:8f:6d:d7:ed:f7:aa:72:df:1c:
         2c:88:c5:8a:c5:ec:85:f2:82:b0:fa:68:6c:bc:5f:80:d1:2c:
         77:6f:b9:6f:4c:e5:94:b7:73:e4:61:51:b0:c6:6a:65:a8:d4:
         e6:53:10:8e:5a:62:93:15:c4:be:95:89:9b:05:e2:be:76:b8:
         b0:29:ea:5f:c6:b8:1e:ea:2c:40:33:7f:a5:a7:64:bf:72:2c:
         b6:f2:93:27:6b:ab:f6:40:26:7a:a6:eb:df:93:6f:33:6a:df:
         d1:8e:1e:dc:92:78:e8:dc:f1:9d:4a:50:35:0d:0a:53:9c:d0:
         df:e9:76:3b:be:0f:48:e8:c7:b4:74:98:32:24:2d:3b:7c:7f:
         68:b6:64:ae:25:c6:c9:59:28:4d:83:0a:9b:8a:90:7f:24:28:
         84:38:d2:80:6b:85:a0:b0:42:8b:36:04:85:db:9b:3b:01:a4:
         ec:04:9a:98:72:42:61:a4:f1:6b:39:56:58:d7:b5:ca:0b:b2:
         43:9b:f5:99:76:54:f1:1d
-----BEGIN CERTIFICATE-----
MIIEgDCCAmigAwIBAgIBAjANBgkqhkiG9w0BAQsFADBFMQswCQYDVQQGEwJGUjET
MBEGA1UECAwKU29tZS1TdGF0ZTEhMB8GA1UECgwYSW50ZXJuZXQgV2lkZ2l0cyBQ
dHkgTHRkMB4XDTIxMTAxMTEzNTc1NFoXDTIxMTIxMDEzNTc1NFowRTELMAkGA1UE
BhMCQVUxEzARBgNVBAgMClNvbWUtU3RhdGUxITAfBgNVBAoMGEludGVybmV0IFdp
ZGdpdHMgUHR5IEx0ZDCCASIwDQYJKoZIhvcNAQEBBQADggEPADCCAQoCggEBAK/f
Howf8exeUS9u9gs429WRCePi1acyZgViKoeqMLyRXD6EG8aJ3onKQoDdzBO4YPgy
06yGqyMKujYvexoway05rOusqYZk5FnFg7pSSwoe0VoQ5SpZHrpjARpSslygPEH+
dbdDppHhrykzwCv4kpthLH5bRbpchwHIirah3STC4IuN9ikF94CyDWkcRTwqgOl5
m20gTwuQJ86hVRDp2etAyx+nCTFT+IKfYZVBn438XfV7v+6oehTahV2UIDMxUQk8
f39zQoWCOz+720qxWf4uIli/xBofotpL+PnCxQadqMpbwdfWV1h0r04LPEuQEYZT
afVjv71M6CHbJPjbXuMCAwEAAaN7MHkwCQYDVR0TBAIwADAsBglghkgBhvhCAQ0E
HxYdT3BlblNTTCBHZW5lcmF0ZWQgQ2VydGlmaWNhdGUwHQYDVR0OBBYEFAh6FfzS
tQF+/I3CFpZIIlEFe00cMB8GA1UdIwQYMBaAFKYzqBYtbFf3KOls4m19c6IzlS53
MA0GCSqGSIb3DQEBCwUAA4ICAQAbOx30vvoSuEIbeABdVYGZJKFIJEaPNNCqm7J3
hHbfUarzj9HbcFN+fG7EgG1Lf7JgTQgLGYy6V2xs1xN4rsj6i9oFjDMwWtuuyDRG
ZXhDKLoE2n2OxDwCd0WWORDsMkXep+sbGAjny2JISQ7lWP7vNq1PB5hzYUZnRsp0
BfAnPeZ7VkESIpKnrTOt7kt/v1ZFv+G5pQwCFaKLMywefFyz0KFOVfJqvhznxKd5
ZWUeyj4ON8ZKTfyNvyJDS+yrmcUx40wPJT57OMfOqYfcZxYuJIKxQ8Jto5BL3D0b
4fVhE7UcTKYQfrK8GoqB037RG6z4zujgttTX0qxX0cTcBiR9HDWCd88ruwbGpyYw
1GAzz5i9ubYig94ZQjQ/9SLnF9wEKrwQGD01/6l9ffIo9o+xHov9s3qMCQKJ2MOP
bdft96py3xwsiMWKxeyF8oKw+mhsvF+A0Sx3b7lvTOWUt3PkYVGwxmplqNTmUxCO
WmKTFcS+lYmbBeK+driwKepfxrge6ixAM3+lp2S/ciy28pMna6v2QCZ6puvfk28z
at/Rjh7cknjo3PGdSlA1DQpTnNDf6XY7vg9I6Me0dJgyJC07fH9otmSuJcbJWShN
gwqbipB/JCiEONKAa4WgsEKLNgSF25s7AaTsBJqYckJhpPFrOVZY17XKC7JDm/WZ
dlTxHQ==
-----END CERTIFICATE-----
